; Function Attrs: nounwind uwtable
define internal i32 @lv_obj_get_height_with_margin(ptr noundef %0) unnamed_addr #1 {
  %2 = tail call ptr @lv_obj_get_style_prop(ptr noundef %0, i32 noundef 0, i8 noundef zeroext 24) #7
  %3 = ptrtoint ptr %2 to i64
  %.sroa.0.0.extract.trunc.i = trunc i64 %3 to i32
  %4 = tail call i32 @lv_obj_get_height(ptr noundef %0) #7
  %5 = add nsw i32 %4, %.sroa.0.0.extract.trunc.i
  %6 = tail call ptr @lv_obj_get_style_prop(ptr noundef %0, i32 noundef 0, i8 noundef zeroext 25) #7
  %7 = ptrtoint ptr %6 to i64
  %.sroa.0.0.extract.trunc.i3 = trunc i64 %7 to i32
  %8 = add nsw i32 %5, %.sroa.0.0.extract.trunc.i3
  ret i32 %8
}